target datalayout = "e-m:e-p270:32:32-p271:32:32-p272:64:64-i64:64-i128:128-f80:128-n8:16:32:64-S128"
target triple = "x86_64-pc-linux-gnu"

%struct.PlannerInfo = type { i32, ptr, ptr, i32, ptr, ptr, ptr, ptr, i32, ptr, ptr, ptr, ptr, ptr, ptr, ptr, ptr, i32, ptr, ptr, ptr, ptr, ptr, i8, ptr, ptr, ptr, ptr, ptr, i32, ptr, ptr, ptr, ptr, ptr, ptr, ptr, i32, ptr, ptr, ptr, i32, ptr, ptr, ptr, ptr, ptr, ptr, [8 x ptr], [8 x ptr], ptr, ptr, ptr, ptr, ptr, ptr, ptr, double, double, double, i32, i8, i8, i8, i8, i8, i8, i8, i32, ptr, ptr, i32, i8, i8, i32, ptr, ptr, ptr, ptr, ptr, ptr, i8, ptr }
%struct.Node = type { i32 }
%struct.Expr = type { i32 }
%struct.PlaceHolderInfo = type { i32, i32, ptr, ptr, ptr, ptr, i32 }
%struct.Var = type { %struct.Expr, i32, i16, i32, i32, i32, ptr, i32, i32, i32, i16, i32 }
%struct.PlaceHolderVar = type { %struct.Expr, ptr, ptr, ptr, i32, i32 }

; Function Attrs: inlinehint nounwind uwtable
define internal ptr @newNode(i64 noundef %0, i32 noundef %1) #4 {
  %3 = alloca i64, align 8
  %4 = alloca i32, align 4
  %5 = alloca ptr, align 8
  store i64 %0, ptr %3, align 8
  store i32 %1, ptr %4, align 4
  call void @llvm.lifetime.start.p0(i64 8, ptr %5) #10
  %6 = load i64, ptr %3, align 8
  %7 = call ptr @palloc0(i64 noundef %6)
  store ptr %7, ptr %5, align 8
  %8 = load i32, ptr %4, align 4
  %9 = load ptr, ptr %5, align 8
  %10 = getelementptr inbounds nuw %struct.Node, ptr %9, i32 0, i32 0
  store i32 %8, ptr %10, align 4
  %11 = load ptr, ptr %5, align 8
  call void @llvm.lifetime.end.p0(i64 8, ptr %5) #10
  ret ptr %11
}

; Function Attrs: nounwind uwtable
define internal ptr @replace_nestloop_params_mutator(ptr noundef %0, ptr noundef %1) #0 {
  %3 = alloca ptr, align 8
  %4 = alloca ptr, align 8
  %5 = alloca ptr, align 8
  %6 = alloca ptr, align 8
  %7 = alloca i32, align 4
  %8 = alloca ptr, align 8
  %9 = alloca ptr, align 8
  store ptr %0, ptr %4, align 8
  store ptr %1, ptr %5, align 8
  %10 = load ptr, ptr %4, align 8
  %11 = icmp eq ptr %10, null
  br i1 %11, label %12, label %13

12:                                               ; preds = %2
  store ptr null, ptr %3, align 8
  br label %76

13:                                               ; preds = %2
  %14 = load ptr, ptr %4, align 8
  %15 = getelementptr inbounds nuw %struct.Node, ptr %14, i32 0, i32 0
  %16 = load i32, ptr %15, align 4
  %17 = icmp eq i32 %16, 6
  br i1 %17, label %18, label %39

18:                                               ; preds = %13
  call void @llvm.lifetime.start.p0(i64 8, ptr %6) #10
  %19 = load ptr, ptr %4, align 8
  store ptr %19, ptr %6, align 8
  %20 = load ptr, ptr %6, align 8
  %21 = getelementptr inbounds nuw %struct.Var, ptr %20, i32 0, i32 1
  %22 = load i32, ptr %21, align 4
  %23 = icmp slt i32 %22, 0
  br i1 %23, label %32, label %24

24:                                               ; preds = %18
  %25 = load ptr, ptr %6, align 8
  %26 = getelementptr inbounds nuw %struct.Var, ptr %25, i32 0, i32 1
  %27 = load i32, ptr %26, align 4
  %28 = load ptr, ptr %5, align 8
  %29 = getelementptr inbounds nuw %struct.PlannerInfo, ptr %28, i32 0, i32 76
  %30 = load ptr, ptr %29, align 8
  %31 = call zeroext i1 @bms_is_member(i32 noundef %27, ptr noundef %30)
  br i1 %31, label %34, label %32

32:                                               ; preds = %24, %18
  %33 = load ptr, ptr %4, align 8
  store ptr %33, ptr %3, align 8
  store i32 1, ptr %7, align 4
  br label %38

34:                                               ; preds = %24
  %35 = load ptr, ptr %5, align 8
  %36 = load ptr, ptr %6, align 8
  %37 = call ptr @replace_nestloop_param_var(ptr noundef %35, ptr noundef %36)
  store ptr %37, ptr %3, align 8
  store i32 1, ptr %7, align 4
  br label %38

38:                                               ; preds = %34, %32
  call void @llvm.lifetime.end.p0(i64 8, ptr %6) #10
  br label %76

39:                                               ; preds = %13
  %40 = load ptr, ptr %4, align 8
  %41 = getelementptr inbounds nuw %struct.Node, ptr %40, i32 0, i32 0
  %42 = load i32, ptr %41, align 4
  %43 = icmp eq i32 %42, 318
  br i1 %43, label %44, label %72

44:                                               ; preds = %39
  call void @llvm.lifetime.start.p0(i64 8, ptr %8) #10
  %45 = load ptr, ptr %4, align 8
  store ptr %45, ptr %8, align 8
  %46 = load ptr, ptr %5, align 8
  %47 = load ptr, ptr %8, align 8
  %48 = call ptr @find_placeholder_info(ptr noundef %46, ptr noundef %47)
  %49 = getelementptr inbounds nuw %struct.PlaceHolderInfo, ptr %48, i32 0, i32 3
  %50 = load ptr, ptr %49, align 8
  %51 = load ptr, ptr %5, align 8
  %52 = getelementptr inbounds nuw %struct.PlannerInfo, ptr %51, i32 0, i32 76
  %53 = load ptr, ptr %52, align 8
  %54 = call zeroext i1 @bms_is_subset(ptr noundef %50, ptr noundef %53)
  br i1 %54, label %67, label %55

55:                                               ; preds = %44
  call void @llvm.lifetime.start.p0(i64 8, ptr %9) #10
  %56 = call ptr @newNode(i64 noundef 40, i32 noundef 318)
  store ptr %56, ptr %9, align 8
  %57 = load ptr, ptr %9, align 8
  %58 = load ptr, ptr %8, align 8
  call void @llvm.memcpy.p0.p0.i64(ptr align 8 %57, ptr align 8 %58, i64 40, i1 false)
  %59 = load ptr, ptr %8, align 8
  %60 = getelementptr inbounds nuw %struct.PlaceHolderVar, ptr %59, i32 0, i32 1
  %61 = load ptr, ptr %60, align 8
  %62 = load ptr, ptr %5, align 8
  %63 = call ptr @replace_nestloop_params_mutator(ptr noundef %61, ptr noundef %62)
  %64 = load ptr, ptr %9, align 8
  %65 = getelementptr inbounds nuw %struct.PlaceHolderVar, ptr %64, i32 0, i32 1
  store ptr %63, ptr %65, align 8
  %66 = load ptr, ptr %9, align 8
  store ptr %66, ptr %3, align 8
  store i32 1, ptr %7, align 4
  call void @llvm.lifetime.end.p0(i64 8, ptr %9) #10
  br label %71

67:                                               ; preds = %44
  %68 = load ptr, ptr %5, align 8
  %69 = load ptr, ptr %8, align 8
  %70 = call ptr @replace_nestloop_param_placeholdervar(ptr noundef %68, ptr noundef %69)
  store ptr %70, ptr %3, align 8
  store i32 1, ptr %7, align 4
  br label %71

71:                                               ; preds = %67, %55
  call void @llvm.lifetime.end.p0(i64 8, ptr %8) #10
  br label %76

72:                                               ; preds = %39
  %73 = load ptr, ptr %4, align 8
  %74 = load ptr, ptr %5, align 8
  %75 = call ptr @expression_tree_mutator_impl(ptr noundef %73, ptr noundef @replace_nestloop_params_mutator, ptr noundef %74)
  store ptr %75, ptr %3, align 8
  br label %76

76:                                               ; preds = %72, %71, %38, %12
  %77 = load ptr, ptr %3, align 8
  ret ptr %77
}