; Function Attrs: nounwind uwtable
define internal ptr @replace_nestloop_params_mutator(ptr noundef %0, ptr noundef %1) #0 {
  %3 = icmp eq ptr %0, null
  br i1 %3, label %common.ret28, label %4

4:                                                ; preds = %2
  %5 = load i32, ptr %0, align 4
  switch i32 %5, label %31 [
    i32 6, label %6
    i32 318, label %16
  ]

6:                                                ; preds = %4
  %7 = getelementptr inbounds nuw i8, ptr %0, i64 4
  %8 = load i32, ptr %7, align 4
  %9 = icmp slt i32 %8, 0
  br i1 %9, label %common.ret28, label %10

10:                                               ; preds = %6
  %11 = getelementptr inbounds nuw i8, ptr %1, i64 648
  %12 = load ptr, ptr %11, align 8
  %13 = tail call zeroext i1 @bms_is_member(i32 noundef %8, ptr noundef %12) #12
  br i1 %13, label %14, label %common.ret28

14:                                               ; preds = %10
  %15 = tail call ptr @replace_nestloop_param_var(ptr noundef nonnull %1, ptr noundef nonnull %0) #12
  br label %common.ret28

16:                                               ; preds = %4
  %17 = tail call ptr @find_placeholder_info(ptr noundef %1, ptr noundef nonnull %0) #12
  %18 = getelementptr inbounds nuw i8, ptr %17, i64 16
  %19 = load ptr, ptr %18, align 8
  %20 = getelementptr inbounds nuw i8, ptr %1, i64 648
  %21 = load ptr, ptr %20, align 8
  %22 = tail call zeroext i1 @bms_is_subset(ptr noundef %19, ptr noundef %21) #12
  br i1 %22, label %29, label %23

common.ret28:                                     ; preds = %29, %14, %10, %6, %2, %31, %23
  %common.ret28.op = phi ptr [ %24, %23 ], [ %32, %31 ], [ null, %2 ], [ %15, %14 ], [ %0, %10 ], [ %0, %6 ], [ %30, %29 ]
  ret ptr %common.ret28.op

23:                                               ; preds = %16
  %24 = tail call noundef ptr @palloc0(i64 noundef 40) #12
  store i32 318, ptr %24, align 4
  tail call void @llvm.memcpy.p0.p0.i64(ptr noundef nonnull align 8 dereferenceable(40) %24, ptr noundef nonnull align 8 dereferenceable(40) %0, i64 40, i1 false)
  %25 = getelementptr inbounds nuw i8, ptr %0, i64 8
  %26 = load ptr, ptr %25, align 8
  %27 = tail call ptr @replace_nestloop_params_mutator(ptr noundef %26, ptr noundef nonnull %1)
  %28 = getelementptr inbounds nuw i8, ptr %24, i64 8
  store ptr %27, ptr %28, align 8
  br label %common.ret28

29:                                               ; preds = %16
  %30 = tail call ptr @replace_nestloop_param_placeholdervar(ptr noundef nonnull %1, ptr noundef nonnull %0) #12
  br label %common.ret28

31:                                               ; preds = %4
  %32 = tail call ptr @expression_tree_mutator_impl(ptr noundef nonnull %0, ptr noundef nonnull @replace_nestloop_params_mutator, ptr noundef %1) #12
  br label %common.ret28
}